target datalayout = "e-m:e-p270:32:32-p271:32:32-p272:64:64-i64:64-i128:128-f80:128-n8:16:32:64-S128"
target triple = "x86_64-pc-linux-gnu"

%struct.ssl_st = type { i32, ptr, ptr, ptr, %struct.CRYPTO_REF_COUNT, ptr, %struct.crypto_ex_data_st }
%struct.CRYPTO_REF_COUNT = type { i32 }
%struct.crypto_ex_data_st = type { ptr, ptr }
%struct.ssl_connection_st = type { %struct.ssl_st, ptr, i32, ptr, ptr, ptr, i32, ptr, i32, i32, i32, i32, %struct.OSSL_TIME, %struct.OSSL_TIME, %struct.ossl_statem_st, i32, ptr, ptr, i64, i64, i64, %struct.ossl_quic_tls_callbacks_st, ptr, ptr, %struct.anon, ptr, ptr, ptr, i32, ptr, %struct.ssl_dane_st, ptr, ptr, ptr, ptr, i32, [64 x i8], [64 x i8], [64 x i8], [64 x i8], [64 x i8], [64 x i8], [64 x i8], [64 x i8], [64 x i8], [64 x i8], [64 x i8], [64 x i8], ptr, [64 x i8], i64, i32, i64, [32 x i8], ptr, ptr, ptr, i64, ptr, [32 x i8], i64, i32, ptr, ptr, i32, i32, ptr, ptr, ptr, ptr, ptr, i64, ptr, ptr, i64, i32, i32, i32, i64, i32, i32, i64, i64, i64, %struct.anon.1, ptr, i32, ptr, ptr, ptr, i32, ptr, ptr, ptr, i32, i32, i32, i32, ptr, i64, i32, ptr, %struct.srp_ctx_st, ptr, %struct.record_layer_st, ptr, ptr, ptr, ptr, i64, i32, i32, i32, i64, i64, i64, ptr, ptr, ptr, ptr, ptr, i64, ptr, i64, ptr, i64 }
%struct.OSSL_TIME = type { i64 }
%struct.ossl_statem_st = type { i32, i32, i32, i32, i32, i32, i32, i32, i32, i32, i32, i32, i32, ptr, ptr, ptr, i8 }
%struct.ossl_quic_tls_callbacks_st = type { ptr, ptr, ptr, ptr, ptr, ptr }
%struct.anon = type { i64, [32 x i8], [32 x i8], ptr, ptr, i32, i32, i32, i32, [2 x i8], i32, i32, i32, i32, %struct.anon.0, [64 x i8], i64, [64 x i8], i64, i32, i32, ptr, i64, ptr, i64, i32, i8, i8, i16, ptr, i16 }
%struct.anon.0 = type { [128 x i8], i64, [128 x i8], i64, i64, i32, ptr, ptr, [4 x ptr], [4 x i16], i64, i32, ptr, i64, ptr, i64, ptr, ptr, ptr, i32, i64, ptr, i32, ptr, i64, ptr, i64, ptr, i64, ptr, ptr, ptr, ptr, i64, i64, ptr, ptr, i32, i32, i32, i32 }
%struct.ssl_dane_st = type { ptr, ptr, ptr, ptr, ptr, i32, i32, i32, i64 }
%struct.anon.1 = type { [29 x i8], ptr, ptr, ptr, i32, ptr, i16, i32, %struct.anon.2, i32, i32, i64, ptr, i64, ptr, i64, ptr, i64, ptr, i64, ptr, i64, ptr, ptr, ptr, ptr, ptr, ptr, ptr, i64, ptr, i64, i32, i32, i32, i32, ptr, i64, i32, i8, i32, [4 x i32], i32, i8, i8, i8, i8 }
%struct.anon.2 = type { ptr, ptr, ptr, i64 }
%struct.srp_ctx_st = type { ptr, ptr, ptr, ptr, ptr, ptr, ptr, ptr, ptr, ptr, ptr, ptr, ptr, ptr, i32, i64 }
%struct.record_layer_st = type { ptr, ptr, ptr, ptr, ptr, ptr, ptr, ptr, i64, i32, i64, [4 x i8], i64, i64, i8, ptr, i32, ptr, ptr, ptr, i64, i64, i64, i64, [32 x %struct.tls_record_st] }
%struct.tls_record_st = type { ptr, i32, i8, ptr, ptr, i64, i64, i16, [8 x i8] }
%struct.PACKET = type { ptr, i64 }

@.str = private unnamed_addr constant [35 x i8] c"../openssl/ssl/statem/statem_lib.c\00", align 1
@__func__.parse_ca_names = private unnamed_addr constant [15 x i8] c"parse_ca_names\00", align 1

; Function Attrs: inlinehint nounwind uwtable
define internal i32 @PACKET_peek_bytes(ptr noundef %0, ptr noundef %1, i64 noundef %2) #5 {
  %4 = alloca i32, align 4
  %5 = alloca ptr, align 8
  %6 = alloca ptr, align 8
  %7 = alloca i64, align 8
  store ptr %0, ptr %5, align 8, !tbaa !8
  store ptr %1, ptr %6, align 8, !tbaa !166
  store i64 %2, ptr %7, align 8, !tbaa !76
  %8 = load ptr, ptr %5, align 8, !tbaa !8
  %9 = call i64 @PACKET_remaining(ptr noundef %8)
  %10 = load i64, ptr %7, align 8, !tbaa !76
  %11 = icmp ult i64 %9, %10
  br i1 %11, label %12, label %13

12:                                               ; preds = %3
  store i32 0, ptr %4, align 4
  br label %18

13:                                               ; preds = %3
  %14 = load ptr, ptr %5, align 8, !tbaa !8
  %15 = getelementptr inbounds nuw %struct.PACKET, ptr %14, i32 0, i32 0
  %16 = load ptr, ptr %15, align 8, !tbaa !197
  %17 = load ptr, ptr %6, align 8, !tbaa !166
  store ptr %16, ptr %17, align 8, !tbaa !82
  store i32 1, ptr %4, align 4
  br label %18

18:                                               ; preds = %13, %12
  %19 = load i32, ptr %4, align 4
  ret i32 %19
}

; Function Attrs: inlinehint nounwind uwtable
define internal void @packet_forward(ptr noundef %0, i64 noundef %1) #5 {
  %3 = alloca ptr, align 8
  %4 = alloca i64, align 8
  store ptr %0, ptr %3, align 8, !tbaa !8
  store i64 %1, ptr %4, align 8, !tbaa !76
  %5 = load i64, ptr %4, align 8, !tbaa !76
  %6 = load ptr, ptr %3, align 8, !tbaa !8
  %7 = getelementptr inbounds nuw %struct.PACKET, ptr %6, i32 0, i32 0
  %8 = load ptr, ptr %7, align 8, !tbaa !197
  %9 = getelementptr inbounds nuw i8, ptr %8, i64 %5
  store ptr %9, ptr %7, align 8, !tbaa !197
  %10 = load i64, ptr %4, align 8, !tbaa !76
  %11 = load ptr, ptr %3, align 8, !tbaa !8
  %12 = getelementptr inbounds nuw %struct.PACKET, ptr %11, i32 0, i32 1
  %13 = load i64, ptr %12, align 8, !tbaa !164
  %14 = sub i64 %13, %10
  store i64 %14, ptr %12, align 8, !tbaa !164
  ret void
}

; Function Attrs: inlinehint nounwind uwtable
define internal i32 @PACKET_peek_net_2(ptr noundef %0, ptr noundef %1) #5 {
  %3 = alloca i32, align 4
  %4 = alloca ptr, align 8
  %5 = alloca ptr, align 8
  store ptr %0, ptr %4, align 8, !tbaa !8
  store ptr %1, ptr %5, align 8, !tbaa !119
  %6 = load ptr, ptr %4, align 8, !tbaa !8
  %7 = call i64 @PACKET_remaining(ptr noundef %6)
  %8 = icmp ult i64 %7, 2
  br i1 %8, label %9, label %10

9:                                                ; preds = %2
  store i32 0, ptr %3, align 4
  br label %27

10:                                               ; preds = %2
  %11 = load ptr, ptr %4, align 8, !tbaa !8
  %12 = getelementptr inbounds nuw %struct.PACKET, ptr %11, i32 0, i32 0
  %13 = load ptr, ptr %12, align 8, !tbaa !197
  %14 = load i8, ptr %13, align 1, !tbaa !75
  %15 = zext i8 %14 to i32
  %16 = shl i32 %15, 8
  %17 = load ptr, ptr %5, align 8, !tbaa !119
  store i32 %16, ptr %17, align 4, !tbaa !85
  %18 = load ptr, ptr %4, align 8, !tbaa !8
  %19 = getelementptr inbounds nuw %struct.PACKET, ptr %18, i32 0, i32 0
  %20 = load ptr, ptr %19, align 8, !tbaa !197
  %21 = getelementptr inbounds i8, ptr %20, i64 1
  %22 = load i8, ptr %21, align 1, !tbaa !75
  %23 = zext i8 %22 to i32
  %24 = load ptr, ptr %5, align 8, !tbaa !119
  %25 = load i32, ptr %24, align 4, !tbaa !85
  %26 = or i32 %25, %23
  store i32 %26, ptr %24, align 4, !tbaa !85
  store i32 1, ptr %3, align 4
  br label %27

27:                                               ; preds = %10, %9
  %28 = load i32, ptr %3, align 4
  ret i32 %28
}

; Function Attrs: inlinehint nounwind uwtable
define internal ptr @ossl_check_X509_NAME_freefunc_type(ptr noundef %0) #5 {
  %2 = alloca ptr, align 8
  store ptr %0, ptr %2, align 8, !tbaa !8
  %3 = load ptr, ptr %2, align 8, !tbaa !8
  ret ptr %3
}

; Function Attrs: inlinehint nounwind uwtable
define internal ptr @ossl_check_X509_NAME_type(ptr noundef %0) #5 {
  %2 = alloca ptr, align 8
  store ptr %0, ptr %2, align 8, !tbaa !282
  %3 = load ptr, ptr %2, align 8, !tbaa !282
  ret ptr %3
}

; Function Attrs: inlinehint nounwind uwtable
define internal ptr @ossl_check_X509_NAME_sk_type(ptr noundef %0) #5 {
  %2 = alloca ptr, align 8
  store ptr %0, ptr %2, align 8, !tbaa !281
  %3 = load ptr, ptr %2, align 8, !tbaa !281
  ret ptr %3
}

; Function Attrs: inlinehint nounwind uwtable
define internal i32 @PACKET_get_bytes(ptr noundef %0, ptr noundef %1, i64 noundef %2) #5 {
  %4 = alloca i32, align 4
  %5 = alloca ptr, align 8
  %6 = alloca ptr, align 8
  %7 = alloca i64, align 8
  store ptr %0, ptr %5, align 8, !tbaa !8
  store ptr %1, ptr %6, align 8, !tbaa !166
  store i64 %2, ptr %7, align 8, !tbaa !76
  %8 = load ptr, ptr %5, align 8, !tbaa !8
  %9 = load ptr, ptr %6, align 8, !tbaa !166
  %10 = load i64, ptr %7, align 8, !tbaa !76
  %11 = call i32 @PACKET_peek_bytes(ptr noundef %8, ptr noundef %9, i64 noundef %10)
  %12 = icmp ne i32 %11, 0
  br i1 %12, label %14, label %13

13:                                               ; preds = %3
  store i32 0, ptr %4, align 4
  br label %17

14:                                               ; preds = %3
  %15 = load ptr, ptr %5, align 8, !tbaa !8
  %16 = load i64, ptr %7, align 8, !tbaa !76
  call void @packet_forward(ptr noundef %15, i64 noundef %16)
  store i32 1, ptr %4, align 4
  br label %17

17:                                               ; preds = %14, %13
  %18 = load i32, ptr %4, align 4
  ret i32 %18
}

; Function Attrs: inlinehint nounwind uwtable
define internal i32 @PACKET_get_net_2(ptr noundef %0, ptr noundef %1) #5 {
  %3 = alloca i32, align 4
  %4 = alloca ptr, align 8
  %5 = alloca ptr, align 8
  store ptr %0, ptr %4, align 8, !tbaa !8
  store ptr %1, ptr %5, align 8, !tbaa !119
  %6 = load ptr, ptr %4, align 8, !tbaa !8
  %7 = load ptr, ptr %5, align 8, !tbaa !119
  %8 = call i32 @PACKET_peek_net_2(ptr noundef %6, ptr noundef %7)
  %9 = icmp ne i32 %8, 0
  br i1 %9, label %11, label %10

10:                                               ; preds = %2
  store i32 0, ptr %3, align 4
  br label %13

11:                                               ; preds = %2
  %12 = load ptr, ptr %4, align 8, !tbaa !8
  call void @packet_forward(ptr noundef %12, i64 noundef 2)
  store i32 1, ptr %3, align 4
  br label %13

13:                                               ; preds = %11, %10
  %14 = load i32, ptr %3, align 4
  ret i32 %14
}

; Function Attrs: inlinehint nounwind uwtable
define internal i64 @PACKET_remaining(ptr noundef %0) #5 {
  %2 = alloca ptr, align 8
  store ptr %0, ptr %2, align 8, !tbaa !8
  %3 = load ptr, ptr %2, align 8, !tbaa !8
  %4 = getelementptr inbounds nuw %struct.PACKET, ptr %3, i32 0, i32 1
  %5 = load i64, ptr %4, align 8, !tbaa !164
  ret i64 %5
}

; Function Attrs: inlinehint nounwind uwtable
define internal i32 @PACKET_get_length_prefixed_2(ptr noundef %0, ptr noundef %1) #5 {
  %3 = alloca i32, align 4
  %4 = alloca ptr, align 8
  %5 = alloca ptr, align 8
  %6 = alloca i32, align 4
  %7 = alloca ptr, align 8
  %8 = alloca %struct.PACKET, align 8
  %9 = alloca i32, align 4
  store ptr %0, ptr %4, align 8, !tbaa !8
  store ptr %1, ptr %5, align 8, !tbaa !8
  call void @llvm.lifetime.start.p0(i64 4, ptr %6) #9
  call void @llvm.lifetime.start.p0(i64 8, ptr %7) #9
  call void @llvm.lifetime.start.p0(i64 16, ptr %8) #9
  %10 = load ptr, ptr %4, align 8, !tbaa !8
  call void @llvm.memcpy.p0.p0.i64(ptr align 8 %8, ptr align 8 %10, i64 16, i1 false), !tbaa.struct !204
  %11 = call i32 @PACKET_get_net_2(ptr noundef %8, ptr noundef %6)
  %12 = icmp ne i32 %11, 0
  br i1 %12, label %13, label %18

13:                                               ; preds = %2
  %14 = load i32, ptr %6, align 4, !tbaa !85
  %15 = zext i32 %14 to i64
  %16 = call i32 @PACKET_get_bytes(ptr noundef %8, ptr noundef %7, i64 noundef %15)
  %17 = icmp ne i32 %16, 0
  br i1 %17, label %19, label %18

18:                                               ; preds = %13, %2
  store i32 0, ptr %3, align 4
  store i32 1, ptr %9, align 4
  br label %28

19:                                               ; preds = %13
  %20 = load ptr, ptr %4, align 8, !tbaa !8
  call void @llvm.memcpy.p0.p0.i64(ptr align 8 %20, ptr align 8 %8, i64 16, i1 false), !tbaa.struct !204
  %21 = load ptr, ptr %7, align 8, !tbaa !82
  %22 = load ptr, ptr %5, align 8, !tbaa !8
  %23 = getelementptr inbounds nuw %struct.PACKET, ptr %22, i32 0, i32 0
  store ptr %21, ptr %23, align 8, !tbaa !197
  %24 = load i32, ptr %6, align 4, !tbaa !85
  %25 = zext i32 %24 to i64
  %26 = load ptr, ptr %5, align 8, !tbaa !8
  %27 = getelementptr inbounds nuw %struct.PACKET, ptr %26, i32 0, i32 1
  store i64 %25, ptr %27, align 8, !tbaa !164
  store i32 1, ptr %3, align 4
  store i32 1, ptr %9, align 4
  br label %28

28:                                               ; preds = %19, %18
  call void @llvm.lifetime.end.p0(i64 16, ptr %8) #9
  call void @llvm.lifetime.end.p0(i64 8, ptr %7) #9
  call void @llvm.lifetime.end.p0(i64 4, ptr %6) #9
  %29 = load i32, ptr %3, align 4
  ret i32 %29
}

; Function Attrs: inlinehint nounwind uwtable
define internal ptr @ossl_check_X509_NAME_compfunc_type(ptr noundef %0) #5 {
  %2 = alloca ptr, align 8
  store ptr %0, ptr %2, align 8, !tbaa !8
  %3 = load ptr, ptr %2, align 8, !tbaa !8
  ret ptr %3
}

; Function Attrs: nounwind uwtable
define i32 @parse_ca_names(ptr noundef %0, ptr noundef %1) #0 {
  %3 = alloca i32, align 4
  %4 = alloca ptr, align 8
  %5 = alloca ptr, align 8
  %6 = alloca ptr, align 8
  %7 = alloca ptr, align 8
  %8 = alloca %struct.PACKET, align 8
  %9 = alloca ptr, align 8
  %10 = alloca ptr, align 8
  %11 = alloca i32, align 4
  %12 = alloca i32, align 4
  store ptr %0, ptr %4, align 8, !tbaa !18
  store ptr %1, ptr %5, align 8, !tbaa !8
  call void @llvm.lifetime.start.p0(i64 8, ptr %6) #9
  %13 = call ptr @ossl_check_X509_NAME_compfunc_type(ptr noundef @ca_dn_cmp)
  %14 = call ptr @OPENSSL_sk_new(ptr noundef %13)
  store ptr %14, ptr %6, align 8, !tbaa !281
  call void @llvm.lifetime.start.p0(i64 8, ptr %7) #9
  store ptr null, ptr %7, align 8, !tbaa !282
  call void @llvm.lifetime.start.p0(i64 16, ptr %8) #9
  %15 = load ptr, ptr %6, align 8, !tbaa !281
  %16 = icmp eq ptr %15, null
  br i1 %16, label %17, label %19

17:                                               ; preds = %2
  call void @ERR_new()
  call void @ERR_set_debug(ptr noundef @.str, i32 noundef 2672, ptr noundef @__func__.parse_ca_names)
  %18 = load ptr, ptr %4, align 8, !tbaa !18
  call void (ptr, i32, i32, ptr, ...) @ossl_statem_fatal(ptr noundef %18, i32 noundef 80, i32 noundef 524303, ptr noundef null)
  br label %82

19:                                               ; preds = %2
  %20 = load ptr, ptr %5, align 8, !tbaa !8
  %21 = call i32 @PACKET_get_length_prefixed_2(ptr noundef %20, ptr noundef %8)
  %22 = icmp ne i32 %21, 0
  br i1 %22, label %25, label %23

23:                                               ; preds = %19
  call void @ERR_new()
  call void @ERR_set_debug(ptr noundef @.str, i32 noundef 2677, ptr noundef @__func__.parse_ca_names)
  %24 = load ptr, ptr %4, align 8, !tbaa !18
  call void (ptr, i32, i32, ptr, ...) @ossl_statem_fatal(ptr noundef %24, i32 noundef 50, i32 noundef 159, ptr noundef null)
  br label %82

25:                                               ; preds = %19
  br label %26

26:                                               ; preds = %68, %25
  %27 = call i64 @PACKET_remaining(ptr noundef %8)
  %28 = icmp ne i64 %27, 0
  br i1 %28, label %29, label %69

29:                                               ; preds = %26
  call void @llvm.lifetime.start.p0(i64 8, ptr %9) #9
  call void @llvm.lifetime.start.p0(i64 8, ptr %10) #9
  call void @llvm.lifetime.start.p0(i64 4, ptr %11) #9
  %30 = call i32 @PACKET_get_net_2(ptr noundef %8, ptr noundef %11)
  %31 = icmp ne i32 %30, 0
  br i1 %31, label %32, label %37

32:                                               ; preds = %29
  %33 = load i32, ptr %11, align 4, !tbaa !85
  %34 = zext i32 %33 to i64
  %35 = call i32 @PACKET_get_bytes(ptr noundef %8, ptr noundef %10, i64 noundef %34)
  %36 = icmp ne i32 %35, 0
  br i1 %36, label %39, label %37

37:                                               ; preds = %32, %29
  call void @ERR_new()
  call void @ERR_set_debug(ptr noundef @.str, i32 noundef 2687, ptr noundef @__func__.parse_ca_names)
  %38 = load ptr, ptr %4, align 8, !tbaa !18
  call void (ptr, i32, i32, ptr, ...) @ossl_statem_fatal(ptr noundef %38, i32 noundef 50, i32 noundef 159, ptr noundef null)
  store i32 2, ptr %12, align 4
  br label %66

39:                                               ; preds = %32
  %40 = load ptr, ptr %10, align 8, !tbaa !82
  store ptr %40, ptr %9, align 8, !tbaa !82
  %41 = load i32, ptr %11, align 4, !tbaa !85
  %42 = zext i32 %41 to i64
  %43 = call ptr @d2i_X509_NAME(ptr noundef null, ptr noundef %10, i64 noundef %42)
  store ptr %43, ptr %7, align 8, !tbaa !282
  %44 = icmp eq ptr %43, null
  br i1 %44, label %45, label %47

45:                                               ; preds = %39
  call void @ERR_new()
  call void @ERR_set_debug(ptr noundef @.str, i32 noundef 2693, ptr noundef @__func__.parse_ca_names)
  %46 = load ptr, ptr %4, align 8, !tbaa !18
  call void (ptr, i32, i32, ptr, ...) @ossl_statem_fatal(ptr noundef %46, i32 noundef 50, i32 noundef 524301, ptr noundef null)
  store i32 2, ptr %12, align 4
  br label %66

47:                                               ; preds = %39
  %48 = load ptr, ptr %10, align 8, !tbaa !82
  %49 = load ptr, ptr %9, align 8, !tbaa !82
  %50 = load i32, ptr %11, align 4, !tbaa !85
  %51 = zext i32 %50 to i64
  %52 = getelementptr inbounds nuw i8, ptr %49, i64 %51
  %53 = icmp ne ptr %48, %52
  br i1 %53, label %54, label %56

54:                                               ; preds = %47
  call void @ERR_new()
  call void @ERR_set_debug(ptr noundef @.str, i32 noundef 2697, ptr noundef @__func__.parse_ca_names)
  %55 = load ptr, ptr %4, align 8, !tbaa !18
  call void (ptr, i32, i32, ptr, ...) @ossl_statem_fatal(ptr noundef %55, i32 noundef 50, i32 noundef 131, ptr noundef null)
  store i32 2, ptr %12, align 4
  br label %66

56:                                               ; preds = %47
  %57 = load ptr, ptr %6, align 8, !tbaa !281
  %58 = call ptr @ossl_check_X509_NAME_sk_type(ptr noundef %57)
  %59 = load ptr, ptr %7, align 8, !tbaa !282
  %60 = call ptr @ossl_check_X509_NAME_type(ptr noundef %59)
  %61 = call i32 @OPENSSL_sk_push(ptr noundef %58, ptr noundef %60)
  %62 = icmp ne i32 %61, 0
  br i1 %62, label %65, label %63

63:                                               ; preds = %56
  call void @ERR_new()
  call void @ERR_set_debug(ptr noundef @.str, i32 noundef 2702, ptr noundef @__func__.parse_ca_names)
  %64 = load ptr, ptr %4, align 8, !tbaa !18
  call void (ptr, i32, i32, ptr, ...) @ossl_statem_fatal(ptr noundef %64, i32 noundef 80, i32 noundef 524303, ptr noundef null)
  store i32 2, ptr %12, align 4
  br label %66

65:                                               ; preds = %56
  store ptr null, ptr %7, align 8, !tbaa !282
  store i32 0, ptr %12, align 4
  br label %66

66:                                               ; preds = %63, %54, %45, %37, %65
  call void @llvm.lifetime.end.p0(i64 4, ptr %11) #9
  call void @llvm.lifetime.end.p0(i64 8, ptr %10) #9
  call void @llvm.lifetime.end.p0(i64 8, ptr %9) #9
  %67 = load i32, ptr %12, align 4
  switch i32 %67, label %87 [
    i32 0, label %68
    i32 2, label %82
  ]

68:                                               ; preds = %66
  br label %26, !llvm.loop !284

69:                                               ; preds = %26
  %70 = load ptr, ptr %4, align 8, !tbaa !18
  %71 = getelementptr inbounds nuw %struct.ssl_connection_st, ptr %70, i32 0, i32 24
  %72 = getelementptr inbounds nuw %struct.anon, ptr %71, i32 0, i32 14
  %73 = getelementptr inbounds nuw %struct.anon.0, ptr %72, i32 0, i32 14
  %74 = load ptr, ptr %73, align 8, !tbaa !285
  %75 = call ptr @ossl_check_X509_NAME_sk_type(ptr noundef %74)
  %76 = call ptr @ossl_check_X509_NAME_freefunc_type(ptr noundef @X509_NAME_free)
  call void @OPENSSL_sk_pop_free(ptr noundef %75, ptr noundef %76)
  %77 = load ptr, ptr %6, align 8, !tbaa !281
  %78 = load ptr, ptr %4, align 8, !tbaa !18
  %79 = getelementptr inbounds nuw %struct.ssl_connection_st, ptr %78, i32 0, i32 24
  %80 = getelementptr inbounds nuw %struct.anon, ptr %79, i32 0, i32 14
  %81 = getelementptr inbounds nuw %struct.anon.0, ptr %80, i32 0, i32 14
  store ptr %77, ptr %81, align 8, !tbaa !285
  store i32 1, ptr %3, align 4
  store i32 1, ptr %12, align 4
  br label %87

82:                                               ; preds = %66, %23, %17
  %83 = load ptr, ptr %6, align 8, !tbaa !281
  %84 = call ptr @ossl_check_X509_NAME_sk_type(ptr noundef %83)
  %85 = call ptr @ossl_check_X509_NAME_freefunc_type(ptr noundef @X509_NAME_free)
  call void @OPENSSL_sk_pop_free(ptr noundef %84, ptr noundef %85)
  %86 = load ptr, ptr %7, align 8, !tbaa !282
  call void @X509_NAME_free(ptr noundef %86)
  store i32 0, ptr %3, align 4
  store i32 1, ptr %12, align 4
  br label %87

87:                                               ; preds = %82, %69, %66
  call void @llvm.lifetime.end.p0(i64 16, ptr %8) #9
  call void @llvm.lifetime.end.p0(i64 8, ptr %7) #9
  call void @llvm.lifetime.end.p0(i64 8, ptr %6) #9
  %88 = load i32, ptr %3, align 4
  ret i32 %88
}