; Function Attrs: nounwind uwtable
define range(i32 0, 2) i32 @parse_ca_names(ptr noundef %0, ptr noundef captures(none) %1) local_unnamed_addr #0 {
  %3 = alloca ptr, align 8
  %4 = tail call ptr @OPENSSL_sk_new(ptr noundef nonnull @ca_dn_cmp) #11
  %5 = icmp eq ptr %4, null
  br i1 %5, label %6, label %7

6:                                                ; preds = %2
  tail call void @ERR_new() #11
  tail call void @ERR_set_debug(ptr noundef nonnull @.str, i32 noundef 2672, ptr noundef nonnull @__func__.parse_ca_names) #11
  tail call void (ptr, i32, i32, ptr, ...) @ossl_statem_fatal(ptr noundef %0, i32 noundef 80, i32 noundef 524303, ptr noundef null) #11
  br label %50

7:                                                ; preds = %2
  %.sroa.8.0..sroa_idx.i = getelementptr inbounds nuw i8, ptr %1, i64 8
  %.sroa.8.0.copyload.i = load i64, ptr %.sroa.8.0..sroa_idx.i, align 8, !tbaa !72
  %8 = icmp ult i64 %.sroa.8.0.copyload.i, 2
  br i1 %8, label %22, label %9

9:                                                ; preds = %7
  %.sroa.0.0.copyload.i = load ptr, ptr %1, align 8, !tbaa !78
  %10 = load i8, ptr %.sroa.0.0.copyload.i, align 1, !tbaa !148
  %11 = zext i8 %10 to i64
  %12 = shl nuw nsw i64 %11, 8
  %13 = getelementptr inbounds nuw i8, ptr %.sroa.0.0.copyload.i, i64 1
  %14 = load i8, ptr %13, align 1, !tbaa !148
  %15 = zext i8 %14 to i64
  %16 = or disjoint i64 %12, %15
  %17 = add i64 %.sroa.8.0.copyload.i, -2
  %18 = icmp ult i64 %17, %16
  br i1 %18, label %22, label %PACKET_get_length_prefixed_2.exit

PACKET_get_length_prefixed_2.exit:                ; preds = %9
  %19 = getelementptr inbounds nuw i8, ptr %.sroa.0.0.copyload.i, i64 2
  %20 = getelementptr inbounds nuw i8, ptr %19, i64 %16
  %21 = sub nuw i64 %17, %16
  store ptr %20, ptr %1, align 8, !tbaa !78
  store i64 %21, ptr %.sroa.8.0..sroa_idx.i, align 8, !tbaa !72
  %.not2261 = icmp eq i64 %16, 0
  br i1 %.not2261, label %._crit_edge, label %.lr.ph

22:                                               ; preds = %7, %9
  tail call void @ERR_new() #11
  tail call void @ERR_set_debug(ptr noundef nonnull @.str, i32 noundef 2677, ptr noundef nonnull @__func__.parse_ca_names) #11
  tail call void (ptr, i32, i32, ptr, ...) @ossl_statem_fatal(ptr noundef %0, i32 noundef 50, i32 noundef 159, ptr noundef null) #11
  br label %50

.lr.ph:                                           ; preds = %PACKET_get_length_prefixed_2.exit, %47
  %.sroa.0.063 = phi ptr [ %36, %47 ], [ %19, %PACKET_get_length_prefixed_2.exit ]
  %.sroa.7.062 = phi i64 [ %37, %47 ], [ %16, %PACKET_get_length_prefixed_2.exit ]
  call void @llvm.lifetime.start.p0(i64 8, ptr nonnull %3) #11
  %23 = icmp eq i64 %.sroa.7.062, 1
  br i1 %23, label %PACKET_get_net_2.exit.thread, label %24

24:                                               ; preds = %.lr.ph
  %25 = load i8, ptr %.sroa.0.063, align 1, !tbaa !148
  %26 = zext i8 %25 to i64
  %27 = shl nuw nsw i64 %26, 8
  %28 = getelementptr inbounds nuw i8, ptr %.sroa.0.063, i64 1
  %29 = load i8, ptr %28, align 1, !tbaa !148
  %30 = zext i8 %29 to i64
  %31 = or disjoint i64 %27, %30
  %32 = add i64 %.sroa.7.062, -2
  %33 = icmp ult i64 %32, %31
  br i1 %33, label %PACKET_get_net_2.exit.thread, label %34

PACKET_get_net_2.exit.thread:                     ; preds = %24, %.lr.ph
  call void @ERR_new() #11
  call void @ERR_set_debug(ptr noundef nonnull @.str, i32 noundef 2687, ptr noundef nonnull @__func__.parse_ca_names) #11
  call void (ptr, i32, i32, ptr, ...) @ossl_statem_fatal(ptr noundef %0, i32 noundef 50, i32 noundef 159, ptr noundef null) #11
  br label %.thread

34:                                               ; preds = %24
  %35 = getelementptr inbounds nuw i8, ptr %.sroa.0.063, i64 2
  store ptr %35, ptr %3, align 8, !tbaa !78
  %36 = getelementptr inbounds nuw i8, ptr %35, i64 %31
  %37 = sub nuw i64 %32, %31
  %38 = call ptr @d2i_X509_NAME(ptr noundef null, ptr noundef nonnull %3, i64 noundef %31) #11
  %39 = icmp eq ptr %38, null
  br i1 %39, label %40, label %41

40:                                               ; preds = %34
  call void @ERR_new() #11
  call void @ERR_set_debug(ptr noundef nonnull @.str, i32 noundef 2693, ptr noundef nonnull @__func__.parse_ca_names) #11
  call void (ptr, i32, i32, ptr, ...) @ossl_statem_fatal(ptr noundef %0, i32 noundef 50, i32 noundef 524301, ptr noundef null) #11
  br label %.thread

41:                                               ; preds = %34
  %42 = load ptr, ptr %3, align 8, !tbaa !78
  %.not25 = icmp eq ptr %42, %36
  br i1 %.not25, label %44, label %43

43:                                               ; preds = %41
  call void @ERR_new() #11
  call void @ERR_set_debug(ptr noundef nonnull @.str, i32 noundef 2697, ptr noundef nonnull @__func__.parse_ca_names) #11
  call void (ptr, i32, i32, ptr, ...) @ossl_statem_fatal(ptr noundef %0, i32 noundef 50, i32 noundef 131, ptr noundef null) #11
  br label %.thread

44:                                               ; preds = %41
  %45 = call i32 @OPENSSL_sk_push(ptr noundef nonnull %4, ptr noundef nonnull %38) #11
  %.not26 = icmp eq i32 %45, 0
  br i1 %.not26, label %46, label %47

46:                                               ; preds = %44
  call void @ERR_new() #11
  call void @ERR_set_debug(ptr noundef nonnull @.str, i32 noundef 2702, ptr noundef nonnull @__func__.parse_ca_names) #11
  call void (ptr, i32, i32, ptr, ...) @ossl_statem_fatal(ptr noundef %0, i32 noundef 80, i32 noundef 524303, ptr noundef null) #11
  br label %.thread

.thread:                                          ; preds = %40, %43, %46, %PACKET_get_net_2.exit.thread
  %.2.ph = phi ptr [ null, %PACKET_get_net_2.exit.thread ], [ %38, %46 ], [ %38, %43 ], [ null, %40 ]
  call void @llvm.lifetime.end.p0(i64 8, ptr nonnull %3) #11
  br label %50

47:                                               ; preds = %44
  call void @llvm.lifetime.end.p0(i64 8, ptr nonnull %3) #11
  %.not22 = icmp eq i64 %37, 0
  br i1 %.not22, label %._crit_edge, label %.lr.ph

._crit_edge:                                      ; preds = %47, %PACKET_get_length_prefixed_2.exit
  %48 = getelementptr inbounds nuw i8, ptr %0, i64 856
  %49 = load ptr, ptr %48, align 8, !tbaa !245
  call void @OPENSSL_sk_pop_free(ptr noundef %49, ptr noundef nonnull @X509_NAME_free) #11
  store ptr %4, ptr %48, align 8, !tbaa !245
  br label %51

50:                                               ; preds = %.thread, %22, %6
  %.018 = phi ptr [ null, %6 ], [ null, %22 ], [ %.2.ph, %.thread ]
  call void @OPENSSL_sk_pop_free(ptr noundef %4, ptr noundef nonnull @X509_NAME_free) #11
  call void @X509_NAME_free(ptr noundef %.018) #11
  br label %51

51:                                               ; preds = %50, %._crit_edge
  %.017 = phi i32 [ 0, %50 ], [ 1, %._crit_edge ]
  ret i32 %.017
}